target datalayout = "e-m:e-p270:32:32-p271:32:32-p272:64:64-i64:64-i128:128-f80:128-n8:16:32:64-S128"
target triple = "x86_64-pc-linux-gnu"

%struct._lv_arc_t = type { %struct._lv_obj_t, i32, float, float, float, float, i32, i32, i32, i8, i32, i32, float, i16 }
%struct._lv_obj_t = type { ptr, ptr, ptr, ptr, ptr, %struct.lv_area_t, i32, i16, i16 }
%struct.lv_area_t = type { i32, i32, i32, i32 }

; Function Attrs: nounwind uwtable
define void @lv_arc_set_value(ptr noundef %0, i32 noundef %1) #0 {
  %3 = alloca ptr, align 8
  %4 = alloca i32, align 4
  %5 = alloca ptr, align 8
  %6 = alloca i32, align 4
  %7 = alloca i32, align 4
  store ptr %0, ptr %3, align 8, !tbaa !8
  store i32 %1, ptr %4, align 4, !tbaa !33
  br label %8

8:                                                ; preds = %2
  %9 = load ptr, ptr %3, align 8, !tbaa !8
  %10 = icmp ne ptr %9, null
  br i1 %10, label %15, label %11

11:                                               ; preds = %8
  br label %12

12:                                               ; preds = %11
  br label %13

13:                                               ; preds = %12
  br label %14

14:                                               ; preds = %13, %14
  br label %14

15:                                               ; preds = %8
  br label %16

16:                                               ; preds = %15
  call void @llvm.lifetime.start.p0(i64 8, ptr %5) #5
  %17 = load ptr, ptr %3, align 8, !tbaa !8
  store ptr %17, ptr %5, align 8, !tbaa !10
  %18 = load ptr, ptr %5, align 8, !tbaa !10
  %19 = getelementptr inbounds nuw %struct._lv_arc_t, ptr %18, i32 0, i32 6
  %20 = load i32, ptr %19, align 4, !tbaa !25
  %21 = load i32, ptr %4, align 4, !tbaa !33
  %22 = icmp eq i32 %20, %21
  br i1 %22, label %23, label %24

23:                                               ; preds = %16
  store i32 1, ptr %6, align 4
  br label %63

24:                                               ; preds = %16
  call void @llvm.lifetime.start.p0(i64 4, ptr %7) #5
  %25 = load i32, ptr %4, align 4, !tbaa !33
  %26 = load ptr, ptr %5, align 8, !tbaa !10
  %27 = getelementptr inbounds nuw %struct._lv_arc_t, ptr %26, i32 0, i32 8
  %28 = load i32, ptr %27, align 4, !tbaa !27
  %29 = icmp sgt i32 %25, %28
  br i1 %29, label %30, label %34

30:                                               ; preds = %24
  %31 = load ptr, ptr %5, align 8, !tbaa !10
  %32 = getelementptr inbounds nuw %struct._lv_arc_t, ptr %31, i32 0, i32 8
  %33 = load i32, ptr %32, align 4, !tbaa !27
  br label %36

34:                                               ; preds = %24
  %35 = load i32, ptr %4, align 4, !tbaa !33
  br label %36

36:                                               ; preds = %34, %30
  %37 = phi i32 [ %33, %30 ], [ %35, %34 ]
  store i32 %37, ptr %7, align 4, !tbaa !33
  %38 = load i32, ptr %7, align 4, !tbaa !33
  %39 = load ptr, ptr %5, align 8, !tbaa !10
  %40 = getelementptr inbounds nuw %struct._lv_arc_t, ptr %39, i32 0, i32 7
  %41 = load i32, ptr %40, align 8, !tbaa !26
  %42 = icmp slt i32 %38, %41
  br i1 %42, label %43, label %47

43:                                               ; preds = %36
  %44 = load ptr, ptr %5, align 8, !tbaa !10
  %45 = getelementptr inbounds nuw %struct._lv_arc_t, ptr %44, i32 0, i32 7
  %46 = load i32, ptr %45, align 8, !tbaa !26
  br label %49

47:                                               ; preds = %36
  %48 = load i32, ptr %7, align 4, !tbaa !33
  br label %49

49:                                               ; preds = %47, %43
  %50 = phi i32 [ %46, %43 ], [ %48, %47 ]
  store i32 %50, ptr %7, align 4, !tbaa !33
  %51 = load ptr, ptr %5, align 8, !tbaa !10
  %52 = getelementptr inbounds nuw %struct._lv_arc_t, ptr %51, i32 0, i32 6
  %53 = load i32, ptr %52, align 4, !tbaa !25
  %54 = load i32, ptr %7, align 4, !tbaa !33
  %55 = icmp eq i32 %53, %54
  br i1 %55, label %56, label %57

56:                                               ; preds = %49
  store i32 1, ptr %6, align 4
  br label %62

57:                                               ; preds = %49
  %58 = load i32, ptr %7, align 4, !tbaa !33
  %59 = load ptr, ptr %5, align 8, !tbaa !10
  %60 = getelementptr inbounds nuw %struct._lv_arc_t, ptr %59, i32 0, i32 6
  store i32 %58, ptr %60, align 4, !tbaa !25
  %61 = load ptr, ptr %3, align 8, !tbaa !8
  call void @value_update(ptr noundef %61)
  store i32 0, ptr %6, align 4
  br label %62

62:                                               ; preds = %57, %56
  call void @llvm.lifetime.end.p0(i64 4, ptr %7) #5
  br label %63

63:                                               ; preds = %62, %23
  call void @llvm.lifetime.end.p0(i64 8, ptr %5) #5
  %64 = load i32, ptr %6, align 4
  switch i32 %64, label %66 [
    i32 0, label %65
    i32 1, label %65
  ]

65:                                               ; preds = %63, %63
  ret void

66:                                               ; preds = %63
  unreachable
}

; Function Attrs: nounwind uwtable
define void @lv_arc_set_mode(ptr noundef %0, i32 noundef %1) #0 {
  %3 = alloca ptr, align 8
  %4 = alloca i32, align 4
  %5 = alloca ptr, align 8
  %6 = alloca i32, align 4
  %7 = alloca float, align 4
  %8 = alloca float, align 4
  store ptr %0, ptr %3, align 8, !tbaa !8
  store i32 %1, ptr %4, align 4, !tbaa !33
  br label %9

9:                                                ; preds = %2
  %10 = load ptr, ptr %3, align 8, !tbaa !8
  %11 = icmp ne ptr %10, null
  br i1 %11, label %16, label %12

12:                                               ; preds = %9
  br label %13

13:                                               ; preds = %12
  br label %14

14:                                               ; preds = %13
  br label %15

15:                                               ; preds = %14, %15
  br label %15

16:                                               ; preds = %9
  br label %17

17:                                               ; preds = %16
  call void @llvm.lifetime.start.p0(i64 8, ptr %5) #5
  %18 = load ptr, ptr %3, align 8, !tbaa !8
  store ptr %18, ptr %5, align 8, !tbaa !10
  call void @llvm.lifetime.start.p0(i64 4, ptr %6) #5
  %19 = load ptr, ptr %5, align 8, !tbaa !10
  %20 = getelementptr inbounds nuw %struct._lv_arc_t, ptr %19, i32 0, i32 6
  %21 = load i32, ptr %20, align 4, !tbaa !25
  store i32 %21, ptr %6, align 4, !tbaa !33
  %22 = load i32, ptr %4, align 4, !tbaa !33
  %23 = load ptr, ptr %5, align 8, !tbaa !10
  %24 = getelementptr inbounds nuw %struct._lv_arc_t, ptr %23, i32 0, i32 9
  %25 = trunc i32 %22 to i8
  %26 = load i8, ptr %24, align 8
  %27 = and i8 %25, 3
  %28 = shl i8 %27, 1
  %29 = and i8 %26, -7
  %30 = or i8 %29, %28
  store i8 %30, ptr %24, align 8
  %31 = load ptr, ptr %5, align 8, !tbaa !10
  %32 = getelementptr inbounds nuw %struct._lv_arc_t, ptr %31, i32 0, i32 6
  store i32 -1, ptr %32, align 4, !tbaa !25
  call void @llvm.lifetime.start.p0(i64 4, ptr %7) #5
  call void @llvm.lifetime.start.p0(i64 4, ptr %8) #5
  %33 = load ptr, ptr %5, align 8, !tbaa !10
  %34 = getelementptr inbounds nuw %struct._lv_arc_t, ptr %33, i32 0, i32 5
  %35 = load float, ptr %34, align 8, !tbaa !22
  store float %35, ptr %8, align 4, !tbaa !39
  %36 = load ptr, ptr %5, align 8, !tbaa !10
  %37 = getelementptr inbounds nuw %struct._lv_arc_t, ptr %36, i32 0, i32 5
  %38 = load float, ptr %37, align 8, !tbaa !22
  %39 = load ptr, ptr %5, align 8, !tbaa !10
  %40 = getelementptr inbounds nuw %struct._lv_arc_t, ptr %39, i32 0, i32 4
  %41 = load float, ptr %40, align 4, !tbaa !21
  %42 = fcmp olt float %38, %41
  br i1 %42, label %43, label %48

43:                                               ; preds = %17
  %44 = load ptr, ptr %5, align 8, !tbaa !10
  %45 = getelementptr inbounds nuw %struct._lv_arc_t, ptr %44, i32 0, i32 5
  %46 = load float, ptr %45, align 8, !tbaa !22
  %47 = fadd float %46, 3.600000e+02
  store float %47, ptr %8, align 4, !tbaa !39
  br label %48

48:                                               ; preds = %43, %17
  %49 = load ptr, ptr %5, align 8, !tbaa !10
  %50 = getelementptr inbounds nuw %struct._lv_arc_t, ptr %49, i32 0, i32 9
  %51 = load i8, ptr %50, align 8
  %52 = lshr i8 %51, 1
  %53 = and i8 %52, 3
  %54 = zext i8 %53 to i32
  switch i32 %54, label %71 [
    i32 1, label %55
    i32 2, label %66
  ]

55:                                               ; preds = %48
  %56 = load ptr, ptr %5, align 8, !tbaa !10
  %57 = getelementptr inbounds nuw %struct._lv_arc_t, ptr %56, i32 0, i32 4
  %58 = load float, ptr %57, align 4, !tbaa !21
  %59 = load float, ptr %8, align 4, !tbaa !39
  %60 = fadd float %58, %59
  %61 = fdiv float %60, 2.000000e+00
  store float %61, ptr %7, align 4, !tbaa !39
  %62 = load ptr, ptr %3, align 8, !tbaa !8
  %63 = load float, ptr %7, align 4, !tbaa !39
  call void @lv_arc_set_start_angle(ptr noundef %62, float noundef %63)
  %64 = load ptr, ptr %3, align 8, !tbaa !8
  %65 = load float, ptr %7, align 4, !tbaa !39
  call void @lv_arc_set_end_angle(ptr noundef %64, float noundef %65)
  br label %76

66:                                               ; preds = %48
  %67 = load ptr, ptr %3, align 8, !tbaa !8
  %68 = load ptr, ptr %5, align 8, !tbaa !10
  %69 = getelementptr inbounds nuw %struct._lv_arc_t, ptr %68, i32 0, i32 5
  %70 = load float, ptr %69, align 8, !tbaa !22
  call void @lv_arc_set_end_angle(ptr noundef %67, float noundef %70)
  br label %76

71:                                               ; preds = %48
  %72 = load ptr, ptr %3, align 8, !tbaa !8
  %73 = load ptr, ptr %5, align 8, !tbaa !10
  %74 = getelementptr inbounds nuw %struct._lv_arc_t, ptr %73, i32 0, i32 4
  %75 = load float, ptr %74, align 4, !tbaa !21
  call void @lv_arc_set_start_angle(ptr noundef %72, float noundef %75)
  br label %76

76:                                               ; preds = %71, %66, %55
  %77 = load ptr, ptr %3, align 8, !tbaa !8
  %78 = load i32, ptr %6, align 4, !tbaa !33
  call void @lv_arc_set_value(ptr noundef %77, i32 noundef %78)
  call void @llvm.lifetime.end.p0(i64 4, ptr %8) #5
  call void @llvm.lifetime.end.p0(i64 4, ptr %7) #5
  call void @llvm.lifetime.end.p0(i64 4, ptr %6) #5
  call void @llvm.lifetime.end.p0(i64 8, ptr %5) #5
  ret void
}