; Function Attrs: nounwind uwtable
define void @lv_arc_set_mode(ptr noundef %0, i32 noundef %1) local_unnamed_addr #0 {
  %.not = icmp eq ptr %0, null
  br i1 %.not, label %.preheader, label %3

.preheader:                                       ; preds = %2, %.preheader
  br label %.preheader

3:                                                ; preds = %2
  %4 = getelementptr inbounds nuw i8, ptr %0, i64 84
  %5 = load i32, ptr %4, align 4, !tbaa !21
  %6 = getelementptr inbounds nuw i8, ptr %0, i64 96
  %7 = trunc i32 %1 to i8
  %8 = load i8, ptr %6, align 8
  %9 = shl i8 %7, 1
  %10 = and i8 %9, 6
  %11 = and i8 %8, -7
  %12 = or disjoint i8 %11, %10
  store i8 %12, ptr %6, align 8
  store i32 -1, ptr %4, align 4, !tbaa !21
  %13 = getelementptr inbounds nuw i8, ptr %0, i64 80
  %14 = load float, ptr %13, align 8, !tbaa !18
  %15 = getelementptr inbounds nuw i8, ptr %0, i64 76
  %16 = load float, ptr %15, align 4, !tbaa !17
  %17 = and i8 %7, 3
  switch i8 %17, label %24 [
    i8 1, label %18
    i8 2, label %23
  ]

18:                                               ; preds = %3
  %19 = fcmp olt float %14, %16
  %20 = fadd float %14, 3.600000e+02
  %.0 = select i1 %19, float %20, float %14
  %21 = fadd float %16, %.0
  %22 = fmul float %21, 5.000000e-01
  tail call void @lv_arc_set_start_angle(ptr noundef nonnull %0, float noundef %22)
  tail call void @lv_arc_set_end_angle(ptr noundef nonnull %0, float noundef %22)
  br label %25

23:                                               ; preds = %3
  tail call void @lv_arc_set_end_angle(ptr noundef nonnull %0, float noundef %14)
  br label %25

24:                                               ; preds = %3
  tail call void @lv_arc_set_start_angle(ptr noundef nonnull %0, float noundef %16)
  br label %25

25:                                               ; preds = %18, %23, %24
  %26 = load i32, ptr %4, align 4, !tbaa !21
  %27 = icmp eq i32 %26, %5
  br i1 %27, label %lv_arc_set_value.exit, label %28

28:                                               ; preds = %25
  %29 = getelementptr inbounds nuw i8, ptr %0, i64 92
  %30 = load i32, ptr %29, align 4, !tbaa !23
  %..i = tail call i32 @llvm.smin.i32(i32 %5, i32 %30)
  %31 = getelementptr inbounds nuw i8, ptr %0, i64 88
  %32 = load i32, ptr %31, align 8, !tbaa !22
  %33 = tail call i32 @llvm.smax.i32(i32 %..i, i32 %32)
  %34 = icmp eq i32 %26, %33
  br i1 %34, label %lv_arc_set_value.exit, label %35

35:                                               ; preds = %28
  store i32 %33, ptr %4, align 4, !tbaa !21
  tail call fastcc void @value_update(ptr noundef nonnull %0)
  br label %lv_arc_set_value.exit

lv_arc_set_value.exit:                            ; preds = %25, %28, %35
  ret void
}